target datalayout = "e-m:e-p270:32:32-p271:32:32-p272:64:64-i64:64-i128:128-f80:128-n8:16:32:64-S128"
target triple = "x86_64-pc-linux-gnu"

%struct.pg_tm = type { i32, i32, i32, i32, i32, i32, i32, i32, i32, i64, ptr }
%struct.FunctionCallInfoBaseData = type { ptr, ptr, ptr, i32, i8, i16, [0 x %struct.NullableDatum] }
%struct.NullableDatum = type { i64, i8 }
%struct.TimeTzADT = type { i64, i32 }

@.str.3 = private unnamed_addr constant [7 x i8] c"date.c\00", align 1
@.str.19 = private unnamed_addr constant [23 x i8] c"timestamp out of range\00", align 1
@__func__.timetz_zone = private unnamed_addr constant [12 x i8] c"timetz_zone\00", align 1

; Function Attrs: inlinehint nounwind uwtable
define internal i64 @PointerGetDatum(ptr noundef %0) #4 {
  %2 = alloca ptr, align 8
  store ptr %0, ptr %2, align 8
  %3 = load ptr, ptr %2, align 8
  %4 = ptrtoint ptr %3 to i64
  ret i64 %4
}

; Function Attrs: inlinehint nounwind uwtable
define internal i64 @TimeTzADTPGetDatum(ptr noundef %0) #4 {
  %2 = alloca ptr, align 8
  store ptr %0, ptr %2, align 8
  %3 = load ptr, ptr %2, align 8
  %4 = call i64 @PointerGetDatum(ptr noundef %3)
  ret i64 %4
}

; Function Attrs: inlinehint nounwind uwtable
define internal ptr @DatumGetTimeTzADTP(i64 noundef %0) #4 {
  %2 = alloca i64, align 8
  store i64 %0, ptr %2, align 8
  %3 = load i64, ptr %2, align 8
  %4 = call ptr @DatumGetPointer(i64 noundef %3)
  ret ptr %4
}

; Function Attrs: inlinehint nounwind uwtable
define internal ptr @DatumGetPointer(i64 noundef %0) #4 {
  %2 = alloca i64, align 8
  store i64 %0, ptr %2, align 8
  %3 = load i64, ptr %2, align 8
  %4 = inttoptr i64 %3 to ptr
  ret ptr %4
}

; Function Attrs: nounwind uwtable
define dso_local i64 @timetz_zone(ptr noundef %0) #0 {
  %2 = alloca ptr, align 8
  %3 = alloca ptr, align 8
  %4 = alloca ptr, align 8
  %5 = alloca ptr, align 8
  %6 = alloca i32, align 4
  %7 = alloca [256 x i8], align 16
  %8 = alloca i32, align 4
  %9 = alloca i32, align 4
  %10 = alloca ptr, align 8
  %11 = alloca i64, align 8
  %12 = alloca i32, align 4
  %13 = alloca i64, align 8
  %14 = alloca %struct.pg_tm, align 8
  %15 = alloca i32, align 4
  store ptr %0, ptr %2, align 8
  call void @llvm.lifetime.start.p0(i64 8, ptr %3) #9
  %16 = load ptr, ptr %2, align 8
  %17 = getelementptr inbounds nuw %struct.FunctionCallInfoBaseData, ptr %16, i32 0, i32 6
  %18 = getelementptr inbounds [0 x %struct.NullableDatum], ptr %17, i64 0, i64 0
  %19 = getelementptr inbounds nuw %struct.NullableDatum, ptr %18, i32 0, i32 0
  %20 = load i64, ptr %19, align 8
  %21 = call ptr @DatumGetPointer(i64 noundef %20)
  %22 = call ptr @pg_detoast_datum_packed(ptr noundef %21)
  store ptr %22, ptr %3, align 8
  call void @llvm.lifetime.start.p0(i64 8, ptr %4) #9
  %23 = load ptr, ptr %2, align 8
  %24 = getelementptr inbounds nuw %struct.FunctionCallInfoBaseData, ptr %23, i32 0, i32 6
  %25 = getelementptr inbounds [0 x %struct.NullableDatum], ptr %24, i64 0, i64 1
  %26 = getelementptr inbounds nuw %struct.NullableDatum, ptr %25, i32 0, i32 0
  %27 = load i64, ptr %26, align 8
  %28 = call ptr @DatumGetTimeTzADTP(i64 noundef %27)
  store ptr %28, ptr %4, align 8
  call void @llvm.lifetime.start.p0(i64 8, ptr %5) #9
  call void @llvm.lifetime.start.p0(i64 4, ptr %6) #9
  call void @llvm.lifetime.start.p0(i64 256, ptr %7) #9
  call void @llvm.lifetime.start.p0(i64 4, ptr %8) #9
  call void @llvm.lifetime.start.p0(i64 4, ptr %9) #9
  call void @llvm.lifetime.start.p0(i64 8, ptr %10) #9
  %29 = load ptr, ptr %3, align 8
  %30 = getelementptr inbounds [256 x i8], ptr %7, i64 0, i64 0
  call void @text_to_cstring_buffer(ptr noundef %29, ptr noundef %30, i64 noundef 256)
  %31 = getelementptr inbounds [256 x i8], ptr %7, i64 0, i64 0
  %32 = call i32 @DecodeTimezoneName(ptr noundef %31, ptr noundef %9, ptr noundef %10)
  store i32 %32, ptr %8, align 4
  %33 = load i32, ptr %8, align 4
  %34 = icmp eq i32 %33, 0
  br i1 %34, label %35, label %38

35:                                               ; preds = %1
  %36 = load i32, ptr %9, align 4
  %37 = sub i32 0, %36
  store i32 %37, ptr %6, align 4
  br label %67

38:                                               ; preds = %1
  %39 = load i32, ptr %8, align 4
  %40 = icmp eq i32 %39, 1
  br i1 %40, label %41, label %47

41:                                               ; preds = %38
  call void @llvm.lifetime.start.p0(i64 8, ptr %11) #9
  %42 = call i64 @GetCurrentTransactionStartTimestamp()
  store i64 %42, ptr %11, align 8
  call void @llvm.lifetime.start.p0(i64 4, ptr %12) #9
  %43 = load i64, ptr %11, align 8
  %44 = getelementptr inbounds [256 x i8], ptr %7, i64 0, i64 0
  %45 = load ptr, ptr %10, align 8
  %46 = call i32 @DetermineTimeZoneAbbrevOffsetTS(i64 noundef %43, ptr noundef %44, ptr noundef %45, ptr noundef %12)
  store i32 %46, ptr %6, align 4
  call void @llvm.lifetime.end.p0(i64 4, ptr %12) #9
  call void @llvm.lifetime.end.p0(i64 8, ptr %11) #9
  br label %66

47:                                               ; preds = %38
  call void @llvm.lifetime.start.p0(i64 8, ptr %13) #9
  %48 = call i64 @GetCurrentTransactionStartTimestamp()
  store i64 %48, ptr %13, align 8
  call void @llvm.lifetime.start.p0(i64 56, ptr %14) #9
  call void @llvm.lifetime.start.p0(i64 4, ptr %15) #9
  %49 = load i64, ptr %13, align 8
  %50 = load ptr, ptr %10, align 8
  %51 = call i32 @timestamp2tm(i64 noundef %49, ptr noundef %6, ptr noundef %14, ptr noundef %15, ptr noundef null, ptr noundef %50)
  %52 = icmp ne i32 %51, 0
  br i1 %52, label %53, label %65

53:                                               ; preds = %47
  br label %54

54:                                               ; preds = %53
  br i1 true, label %55, label %57

55:                                               ; preds = %54
  %56 = call zeroext i1 @errstart_cold(i32 noundef 21, ptr noundef null) #8
  br i1 %56, label %59, label %62

57:                                               ; preds = %54
  %58 = call zeroext i1 @errstart(i32 noundef 21, ptr noundef null)
  br i1 %58, label %59, label %62

59:                                               ; preds = %57, %55
  %60 = call i32 @errcode(i32 noundef 134217858)
  %61 = call i32 (ptr, ...) @errmsg(ptr noundef @.str.19)
  call void @errfinish(ptr noundef @.str.3, i32 noundef 3120, ptr noundef @__func__.timetz_zone)
  br label %62

62:                                               ; preds = %59, %57, %55
  unreachable

63:                                               ; No predecessors!
  br label %64

64:                                               ; preds = %63
  br label %65

65:                                               ; preds = %64, %47
  call void @llvm.lifetime.end.p0(i64 4, ptr %15) #9
  call void @llvm.lifetime.end.p0(i64 56, ptr %14) #9
  call void @llvm.lifetime.end.p0(i64 8, ptr %13) #9
  br label %66

66:                                               ; preds = %65, %41
  br label %67

67:                                               ; preds = %66, %35
  %68 = call ptr @palloc(i64 noundef 16)
  store ptr %68, ptr %5, align 8
  %69 = load ptr, ptr %4, align 8
  %70 = getelementptr inbounds nuw %struct.TimeTzADT, ptr %69, i32 0, i32 0
  %71 = load i64, ptr %70, align 8
  %72 = load ptr, ptr %4, align 8
  %73 = getelementptr inbounds nuw %struct.TimeTzADT, ptr %72, i32 0, i32 1
  %74 = load i32, ptr %73, align 8
  %75 = load i32, ptr %6, align 4
  %76 = sub i32 %74, %75
  %77 = sext i32 %76 to i64
  %78 = mul i64 %77, 1000000
  %79 = add i64 %71, %78
  %80 = load ptr, ptr %5, align 8
  %81 = getelementptr inbounds nuw %struct.TimeTzADT, ptr %80, i32 0, i32 0
  store i64 %79, ptr %81, align 8
  br label %82

82:                                               ; preds = %87, %67
  %83 = load ptr, ptr %5, align 8
  %84 = getelementptr inbounds nuw %struct.TimeTzADT, ptr %83, i32 0, i32 0
  %85 = load i64, ptr %84, align 8
  %86 = icmp slt i64 %85, 0
  br i1 %86, label %87, label %92

87:                                               ; preds = %82
  %88 = load ptr, ptr %5, align 8
  %89 = getelementptr inbounds nuw %struct.TimeTzADT, ptr %88, i32 0, i32 0
  %90 = load i64, ptr %89, align 8
  %91 = add i64 %90, 86400000000
  store i64 %91, ptr %89, align 8
  br label %82, !llvm.loop !6

92:                                               ; preds = %82
  %93 = load ptr, ptr %5, align 8
  %94 = getelementptr inbounds nuw %struct.TimeTzADT, ptr %93, i32 0, i32 0
  %95 = load i64, ptr %94, align 8
  %96 = icmp sge i64 %95, 86400000000
  br i1 %96, label %97, label %102

97:                                               ; preds = %92
  %98 = load ptr, ptr %5, align 8
  %99 = getelementptr inbounds nuw %struct.TimeTzADT, ptr %98, i32 0, i32 0
  %100 = load i64, ptr %99, align 8
  %101 = srem i64 %100, 86400000000
  store i64 %101, ptr %99, align 8
  br label %102

102:                                              ; preds = %97, %92
  %103 = load i32, ptr %6, align 4
  %104 = load ptr, ptr %5, align 8
  %105 = getelementptr inbounds nuw %struct.TimeTzADT, ptr %104, i32 0, i32 1
  store i32 %103, ptr %105, align 8
  %106 = load ptr, ptr %5, align 8
  %107 = call i64 @TimeTzADTPGetDatum(ptr noundef %106)
  call void @llvm.lifetime.end.p0(i64 8, ptr %10) #9
  call void @llvm.lifetime.end.p0(i64 4, ptr %9) #9
  call void @llvm.lifetime.end.p0(i64 4, ptr %8) #9
  call void @llvm.lifetime.end.p0(i64 256, ptr %7) #9
  call void @llvm.lifetime.end.p0(i64 4, ptr %6) #9
  call void @llvm.lifetime.end.p0(i64 8, ptr %5) #9
  call void @llvm.lifetime.end.p0(i64 8, ptr %4) #9
  call void @llvm.lifetime.end.p0(i64 8, ptr %3) #9
  ret i64 %107
}