; Function Attrs: nounwind uwtable
define dso_local noundef i64 @timetz_zone(ptr noundef readonly captures(none) %0) #0 {
  %2 = alloca i32, align 4
  %3 = alloca [256 x i8], align 16
  %4 = alloca i32, align 4
  %5 = alloca ptr, align 8
  %6 = alloca i32, align 4
  %7 = alloca %struct.pg_tm, align 8
  %8 = alloca i32, align 4
  %9 = getelementptr inbounds nuw i8, ptr %0, i64 32
  %10 = load i64, ptr %9, align 8
  %11 = inttoptr i64 %10 to ptr
  %12 = tail call ptr @pg_detoast_datum_packed(ptr noundef %11) #16
  %13 = getelementptr inbounds nuw i8, ptr %0, i64 48
  %14 = load i64, ptr %13, align 8
  call void @llvm.lifetime.start.p0(i64 4, ptr nonnull %2) #16
  call void @llvm.lifetime.start.p0(i64 256, ptr nonnull %3) #16
  call void @llvm.lifetime.start.p0(i64 4, ptr nonnull %4) #16
  call void @llvm.lifetime.start.p0(i64 8, ptr nonnull %5) #16
  call void @text_to_cstring_buffer(ptr noundef %12, ptr noundef nonnull %3, i64 noundef 256) #16
  %15 = call i32 @DecodeTimezoneName(ptr noundef nonnull %3, ptr noundef nonnull %4, ptr noundef nonnull %5) #16
  switch i32 %15, label %23 [
    i32 0, label %16
    i32 1, label %19
  ]

16:                                               ; preds = %1
  %17 = load i32, ptr %4, align 4
  %18 = sub i32 0, %17
  store i32 %18, ptr %2, align 4
  br label %32

19:                                               ; preds = %1
  %20 = call i64 @GetCurrentTransactionStartTimestamp() #16
  call void @llvm.lifetime.start.p0(i64 4, ptr nonnull %6) #16
  %21 = load ptr, ptr %5, align 8
  %22 = call i32 @DetermineTimeZoneAbbrevOffsetTS(i64 noundef %20, ptr noundef nonnull %3, ptr noundef %21, ptr noundef nonnull %6) #16
  store i32 %22, ptr %2, align 4
  call void @llvm.lifetime.end.p0(i64 4, ptr nonnull %6) #16
  br label %32

23:                                               ; preds = %1
  %24 = call i64 @GetCurrentTransactionStartTimestamp() #16
  call void @llvm.lifetime.start.p0(i64 56, ptr nonnull %7) #16
  call void @llvm.lifetime.start.p0(i64 4, ptr nonnull %8) #16
  %25 = load ptr, ptr %5, align 8
  %26 = call i32 @timestamp2tm(i64 noundef %24, ptr noundef nonnull %2, ptr noundef nonnull %7, ptr noundef nonnull %8, ptr noundef null, ptr noundef %25) #16
  %.not = icmp eq i32 %26, 0
  br i1 %.not, label %31, label %27

27:                                               ; preds = %23
  %28 = call zeroext i1 @errstart_cold(i32 noundef 21, ptr noundef null) #15
  call void @llvm.assume(i1 %28)
  %29 = call i32 @errcode(i32 noundef 134217858) #16
  %30 = call i32 (ptr, ...) @errmsg(ptr noundef nonnull @.str.19) #16
  call void @errfinish(ptr noundef nonnull @.str.3, i32 noundef 3120, ptr noundef nonnull @__func__.timetz_zone) #16
  unreachable

31:                                               ; preds = %23
  call void @llvm.lifetime.end.p0(i64 4, ptr nonnull %8) #16
  call void @llvm.lifetime.end.p0(i64 56, ptr nonnull %7) #16
  br label %32

32:                                               ; preds = %19, %31, %16
  %33 = inttoptr i64 %14 to ptr
  %34 = call ptr @palloc(i64 noundef 16) #16
  %35 = load i64, ptr %33, align 8
  %36 = getelementptr inbounds nuw i8, ptr %33, i64 8
  %37 = load i32, ptr %36, align 8
  %38 = load i32, ptr %2, align 4
  %39 = sub i32 %37, %38
  %40 = sext i32 %39 to i64
  %41 = mul nsw i64 %40, 1000000
  %42 = add i64 %41, %35
  %smax = call i64 @llvm.smax.i64(i64 %42, i64 0)
  %43 = sub i64 %smax, %35
  %44 = icmp ne i64 %43, %41
  %umin = zext i1 %44 to i64
  %45 = or disjoint i64 %41, %umin
  %46 = sub i64 %43, %45
  %47 = udiv i64 %46, 86400000000
  %48 = add nuw nsw i64 %47, %umin
  %49 = mul i64 %48, 86400000000
  %50 = add i64 %35, %49
  %51 = add i64 %50, %41
  %52 = icmp samesign ugt i64 %51, 86399999999
  %53 = urem i64 %51, 86400000000
  %storemerge17 = select i1 %52, i64 %53, i64 %51
  store i64 %storemerge17, ptr %34, align 8
  %54 = getelementptr inbounds nuw i8, ptr %34, i64 8
  store i32 %38, ptr %54, align 8
  %55 = ptrtoint ptr %34 to i64
  call void @llvm.lifetime.end.p0(i64 8, ptr nonnull %5) #16
  call void @llvm.lifetime.end.p0(i64 4, ptr nonnull %4) #16
  call void @llvm.lifetime.end.p0(i64 256, ptr nonnull %3) #16
  call void @llvm.lifetime.end.p0(i64 4, ptr nonnull %2) #16
  ret i64 %55
}